target datalayout = "e-m:e-p270:32:32-p271:32:32-p272:64:64-i64:64-i128:128-f80:128-n8:16:32:64-S128"
target triple = "x86_64-pc-linux-gnu"

%"struct.duckdb_brotli::BrotliDecoderStateStruct" = type { i32, i32, %"struct.duckdb_brotli::BrotliBitReader", ptr, ptr, ptr, %union.anon, i64, i32, i32, i32, i32, i32, i32, [4 x i32], i32, i32, ptr, ptr, ptr, ptr, ptr, ptr, %"struct.duckdb_brotli::HuffmanTreeGroup", %"struct.duckdb_brotli::HuffmanTreeGroup", %"struct.duckdb_brotli::HuffmanTreeGroup", ptr, ptr, i32, i32, [3 x i64], i64, [3 x i64], [6 x i64], i64, i64, i64, ptr, ptr, i64, i64, i64, [65 x i32], i32, i32, i8, ptr, ptr, ptr, i64, i32, i32, i32, i32, i32, i32, i64, ptr, ptr, ptr, ptr, [8 x i32], %union.anon.0 }
%"struct.duckdb_brotli::BrotliBitReader" = type { i64, i64, ptr, ptr, ptr }
%union.anon = type { i64 }
%"struct.duckdb_brotli::HuffmanTreeGroup" = type { ptr, ptr, i16, i16, i16 }
%union.anon.0 = type { %"struct.duckdb_brotli::BrotliMetablockBodyArena" }
%"struct.duckdb_brotli::BrotliMetablockBodyArena" = type { [544 x i8], [544 x i64] }

; Function Attrs: mustprogress uwtable
define noundef i32 @_ZN13duckdb_brotli23BrotliDecoderDecompressEmPKhPmPh(i64 noundef %0, ptr noundef %1, ptr noundef %2, ptr noundef %3) #1 {
  %5 = alloca i32, align 4
  %6 = alloca i64, align 8
  %7 = alloca ptr, align 8
  %8 = alloca ptr, align 8
  %9 = alloca ptr, align 8
  %10 = alloca %"struct.duckdb_brotli::BrotliDecoderStateStruct", align 8
  %11 = alloca i32, align 4
  %12 = alloca i64, align 8
  %13 = alloca i64, align 8
  %14 = alloca ptr, align 8
  %15 = alloca i64, align 8
  %16 = alloca ptr, align 8
  %17 = alloca i32, align 4
  store i64 %0, ptr %6, align 8, !tbaa !31
  store ptr %1, ptr %7, align 8, !tbaa !32
  store ptr %2, ptr %8, align 8, !tbaa !50
  store ptr %3, ptr %9, align 8, !tbaa !32
  call void @llvm.lifetime.start.p0(i64 5744, ptr %10) #14
  call void @llvm.lifetime.start.p0(i64 4, ptr %11) #14
  call void @llvm.lifetime.start.p0(i64 8, ptr %12) #14
  store i64 0, ptr %12, align 8, !tbaa !31
  call void @llvm.lifetime.start.p0(i64 8, ptr %13) #14
  %18 = load i64, ptr %6, align 8, !tbaa !31
  store i64 %18, ptr %13, align 8, !tbaa !31
  call void @llvm.lifetime.start.p0(i64 8, ptr %14) #14
  %19 = load ptr, ptr %7, align 8, !tbaa !32
  store ptr %19, ptr %14, align 8, !tbaa !32
  call void @llvm.lifetime.start.p0(i64 8, ptr %15) #14
  %20 = load ptr, ptr %8, align 8, !tbaa !50
  %21 = load i64, ptr %20, align 8, !tbaa !31
  store i64 %21, ptr %15, align 8, !tbaa !31
  call void @llvm.lifetime.start.p0(i64 8, ptr %16) #14
  %22 = load ptr, ptr %9, align 8, !tbaa !32
  store ptr %22, ptr %16, align 8, !tbaa !32
  %23 = call noundef i32 @_ZN13duckdb_brotli22BrotliDecoderStateInitEPNS_24BrotliDecoderStateStructEPFPvS2_mEPFvS2_S2_ES2_(ptr noundef %10, ptr noundef null, ptr noundef null, ptr noundef null)
  %24 = icmp ne i32 %23, 0
  br i1 %24, label %26, label %25

25:                                               ; preds = %4
  store i32 0, ptr %5, align 4
  store i32 1, ptr %17, align 4
  br label %35

26:                                               ; preds = %4
  %27 = call noundef i32 @_ZN13duckdb_brotli29BrotliDecoderDecompressStreamEPNS_24BrotliDecoderStateStructEPmPPKhS2_PPhS2_(ptr noundef %10, ptr noundef %13, ptr noundef %14, ptr noundef %15, ptr noundef %16, ptr noundef %12)
  store i32 %27, ptr %11, align 4, !tbaa !52
  %28 = load i64, ptr %12, align 8, !tbaa !31
  %29 = load ptr, ptr %8, align 8, !tbaa !50
  store i64 %28, ptr %29, align 8, !tbaa !31
  call void @_ZN13duckdb_brotli25BrotliDecoderStateCleanupEPNS_24BrotliDecoderStateStructE(ptr noundef %10)
  %30 = load i32, ptr %11, align 4, !tbaa !52
  %31 = icmp ne i32 %30, 1
  br i1 %31, label %32, label %33

32:                                               ; preds = %26
  store i32 0, ptr %11, align 4, !tbaa !52
  br label %33

33:                                               ; preds = %32, %26
  %34 = load i32, ptr %11, align 4, !tbaa !52
  store i32 %34, ptr %5, align 4
  store i32 1, ptr %17, align 4
  br label %35

35:                                               ; preds = %33, %25
  call void @llvm.lifetime.end.p0(i64 8, ptr %16) #14
  call void @llvm.lifetime.end.p0(i64 8, ptr %15) #14
  call void @llvm.lifetime.end.p0(i64 8, ptr %14) #14
  call void @llvm.lifetime.end.p0(i64 8, ptr %13) #14
  call void @llvm.lifetime.end.p0(i64 8, ptr %12) #14
  call void @llvm.lifetime.end.p0(i64 4, ptr %11) #14
  call void @llvm.lifetime.end.p0(i64 5744, ptr %10) #14
  %36 = load i32, ptr %5, align 4
  ret i32 %36
}