; Function Attrs: mustprogress uwtable
define noundef range(i32 0, 2) i32 @_ZN13duckdb_brotli23BrotliDecoderDecompressEmPKhPmPh(i64 noundef %0, ptr noundef %1, ptr noundef captures(none) %2, ptr noundef %3) local_unnamed_addr #1 {
  %5 = alloca %"struct.duckdb_brotli::BrotliDecoderStateStruct", align 8
  %6 = alloca i64, align 8
  %7 = alloca i64, align 8
  %8 = alloca ptr, align 8
  %9 = alloca i64, align 8
  %10 = alloca ptr, align 8
  call void @llvm.lifetime.start.p0(i64 5744, ptr nonnull %5) #22
  call void @llvm.lifetime.start.p0(i64 8, ptr nonnull %6) #22
  store i64 0, ptr %6, align 8, !tbaa !30
  call void @llvm.lifetime.start.p0(i64 8, ptr nonnull %7) #22
  store i64 %0, ptr %7, align 8, !tbaa !30
  call void @llvm.lifetime.start.p0(i64 8, ptr nonnull %8) #22
  store ptr %1, ptr %8, align 8, !tbaa !29
  call void @llvm.lifetime.start.p0(i64 8, ptr nonnull %9) #22
  %11 = load i64, ptr %2, align 8, !tbaa !30
  store i64 %11, ptr %9, align 8, !tbaa !30
  call void @llvm.lifetime.start.p0(i64 8, ptr nonnull %10) #22
  store ptr %3, ptr %10, align 8, !tbaa !29
  %12 = call noundef i32 @_ZN13duckdb_brotli22BrotliDecoderStateInitEPNS_24BrotliDecoderStateStructEPFPvS2_mEPFvS2_S2_ES2_(ptr noundef nonnull %5, ptr noundef null, ptr noundef null, ptr noundef null)
  %.not = icmp eq i32 %12, 0
  br i1 %.not, label %16, label %13

13:                                               ; preds = %4
  %14 = call noundef i32 @_ZN13duckdb_brotli29BrotliDecoderDecompressStreamEPNS_24BrotliDecoderStateStructEPmPPKhS2_PPhS2_(ptr noundef nonnull %5, ptr noundef nonnull %7, ptr noundef nonnull %8, ptr noundef nonnull %9, ptr noundef nonnull %10, ptr noundef nonnull %6)
  %15 = load i64, ptr %6, align 8, !tbaa !30
  store i64 %15, ptr %2, align 8, !tbaa !30
  call void @_ZN13duckdb_brotli25BrotliDecoderStateCleanupEPNS_24BrotliDecoderStateStructE(ptr noundef nonnull %5)
  %.not7 = icmp eq i32 %14, 1
  %spec.store.select = zext i1 %.not7 to i32
  br label %16

16:                                               ; preds = %4, %13
  %.0 = phi i32 [ %spec.store.select, %13 ], [ 0, %4 ]
  call void @llvm.lifetime.end.p0(i64 8, ptr nonnull %10) #22
  call void @llvm.lifetime.end.p0(i64 8, ptr nonnull %9) #22
  call void @llvm.lifetime.end.p0(i64 8, ptr nonnull %8) #22
  call void @llvm.lifetime.end.p0(i64 8, ptr nonnull %7) #22
  call void @llvm.lifetime.end.p0(i64 8, ptr nonnull %6) #22
  call void @llvm.lifetime.end.p0(i64 5744, ptr nonnull %5) #22
  ret i32 %.0
}